(dp0
S'pci-summary'
p1
((dp2
S'rcf'
p3
F73.10585786300048
sS'scf'
p4
F0.0
sS'ccr'
p5
F0.0
s(dp6
S'forks_count'
p7
I0
sS'stargazers_count'
p8
I7
sS'subscribers_count'
p9
I13
sS'open_issues_count'
p10
I2
sS'size'
p11
I112
stp12
sS'collectiveintelligence-book'
p13
((dp14
S'rcf'
p15
F50.00005855
sS'scf'
p16
F0.0
sS'ccr'
p17
F0.0
s(dp18
S'subscribers_count'
p19
I2
sS'stargazers_count'
p20
I12
sS'forks_count'
p21
I11
sS'open_issues_count'
p22
I0
sS'size'
p23
I80
stp24
sS'trick2013'
p25
((dp26
g15
F50.00000525
sg16
F0.0
sg17
F0.0
s(dp27
g19
I11
sg20
I59
sg21
I5
sg22
I0
sg23
I128
stp28
sS'zipline'
p29
((dp30
g3
F63.95089311577603
sg4
F50.44394119358454
sg5
F26.99619771852853
s(dp31
g7
I222
sg8
I1179
sg9
I198
sg10
I57
sg11
I9483
stp32
sS'reveal.js'
p33
((dp34
g15
F75.86831758639165
sg16
F53.966047811818584
sg17
F22.32142857136214
s(dp35
g19
I826
sg20
I12740
sg21
I3541
sg22
I40
sg23
I35006
stp36
sS'brain'
p37
((dp38
g15
F50.1932434223664
sg16
F0.0
sg17
F49.99999999166667
s(dp39
g19
I118
sg20
I1974
sg21
I164
sg22
I8
sg23
I646
stp40
sS'pywt'
p41
((dp42
g15
F50.0000217
sg16
F0.0
sg17
F0.0
s(dp43
g19
I15
sg20
I66
sg21
I31
sg22
I6
sg23
I1920
stp44
sS'OpenSubdiv'
p45
((dp46
g3
F64.8327909110745
sg4
F48.826430493618425
sg5
F48.51063829766591
s(dp47
g7
I176
sg8
I1115
sg9
I277
sg10
I32
sg11
I21808
stp48
sS'networkx'
p49
((dp50
g15
F87.86148364589818
sg16
F54.87840033823051
sg17
F35.474860335096444
s(dp51
g19
I79
sg20
I639
sg21
I207
sg22
I107
sg23
I16971
stp52
sS'd3'
p53
((dp54
g15
F79.09518142041877
sg16
F54.594316186372964
sg17
F22.222222222158912
s(dp55
g19
I1749
sg20
I20695
sg21
I4111
sg22
I135
sg23
I88432
stp56
sS'3046'
p57
((dp58
g15
F73.10585786298297
sg16
F1.699250014423126
sg17
F24.999999996875
s(dp59
g19
I1
sg20
I2
sg21
I1
sg22
I0
sg23
I164
stp60
sS'flask'
p61
((dp62
g3
F50.74735819120335
sg4
F30.223678130284544
sg5
F78.12499999877929
s(dp63
g7
I1884
sg8
I8018
sg9
I729
sg10
I187
sg11
I9159
stp64
sS'proxychains-ng'
p65
((dp66
g15
F50.026385187513796
sg16
F0.0
sg17
F0.0
s(dp67
g19
I13
sg20
I122
sg21
I6
sg22
I7
sg23
I793
stp68
sS'Craft'
p69
((dp70
g15
F76.56605935031887
sg16
F49.36637939002572
sg17
F10.245901639302271
s(dp71
g19
I144
sg20
I1730
sg21
I194
sg22
I43
sg23
I7971
stp72
sS'sympy'
p73
((dp74
g15
F57.93778586516725
sg16
F80.34798962577268
sg17
F50.83452551261286
s(dp75
g19
I79
sg20
I885
sg21
I518
sg22
I155
sg23
I158206
stp76
sS'tc'
p77
((dp78
g15
F50.0000511
sg16
F0.0
sg17
F0.0
s(dp79
g19
I10
sg20
I147
sg21
I27
sg22
I2
sg23
I132
stp80
sS'sustainable-assistance'
p81
((dp82
g15
F50.000037924999994
sg16
F0.0
sg17
F0.0
s(dp83
g19
I1
sg20
I1
sg21
I1
sg22
I0
sg23
I272
stp84
sS'Ladda'
p85
((dp86
g15
F61.93822891648672
sg16
F21.69925001442312
sg17
F25.71428571355102
s(dp87
g19
I187
sg20
I4097
sg21
I396
sg22
I3
sg23
I425
stp88
sS'pylearn2'
p89
((dp90
g15
F54.2427250856218
sg16
F56.79480099505447
sg17
F49.14425427860845
s(dp91
g19
I75
sg20
I408
sg21
I177
sg22
I101
sg23
I665540
stp92
sS'bacchusDB'
p93
((dp94
g15
F73.10585786299141
sg16
F39.54196310386876
sg17
F60.16260162552713
s(dp95
g19
I4
sg20
I1
sg21
I0
sg22
I0
sg23
I2456
stp96
sS'haroopad'
p97
((dp98
g3
F76.01634652006064
sg4
F45.46894459887638
sg5
F0.5376344085992601
s(dp99
g7
I23
sg8
I153
sg9
I21
sg10
I64
sg11
I137935
stp100
sS'macvim'
p101
((dp102
g15
F90.83842896491133
sg16
F58.97845456005513
sg17
F42.016806722600805
s(dp103
g19
I224
sg20
I3425
sg21
I278
sg22
I4
sg23
I64328
stp104
sS'gensim'
p105
((dp106
g15
F52.69323378822043
sg16
F36.29356620079609
sg17
F20.408163265097876
s(dp107
g19
I84
sg20
I542
sg21
I159
sg22
I26
sg23
I15360
stp108
sS'netty'
p109
((dp110
g15
F68.49584611991118
sg16
F67.91162888555019
sg17
F27.231638418048327
s(dp111
g19
I381
sg20
I2375
sg21
I961
sg22
I101
sg23
I57781
stp112
sS'onion'
p113
((dp114
g15
F79.84505339434133
sg16
F30.223678130284544
sg17
F26.56249999958496
s(dp115
g19
I29
sg20
I434
sg21
I42
sg22
I5
sg23
I4756
stp116
sS'scikit-learn'
p117
((dp118
g15
F99.99999999998839
sg16
F81.1374216604919
sg17
F38.6004514672512
s(dp119
g19
I265
sg20
I2118
sg21
I1098
sg22
I417
sg23
I80246
stp120
sS'HElib'
p121
((dp122
g3
F68.92849445242504
sg4
F14.594316186372973
sg5
F52.38095237845805
s(dp123
g7
I104
sg8
I721
sg9
I124
sg10
I2
sg11
I2170
stp124
sS'Projects'
p125
((dp126
g15
F73.1058578629904
sg16
F40.8746284125034
sg17
F7.407407407352538
s(dp127
g19
I425
sg20
I3927
sg21
I2095
sg22
I4
sg23
I2093
stp128
sS'Flat-UI'
p129
((dp130
g15
F60.905377786514066
sg16
F23.575520046180838
sg17
F62.4999999984375
s(dp131
g19
I493
sg20
I5790
sg21
I1099
sg22
I48
sg23
I31520
stp132
sS'free-programming-books'
p133
((dp134
g15
F73.10585786296778
sg16
F71.49747119504683
sg17
F70.48458149773525
s(dp135
g19
I1410
sg20
I13620
sg21
I2407
sg22
I9
sg23
I2813
stp136
sS'MulticoreComputing'
p137
((dp138
g15
F99.9999999792132
sg16
F0.0
sg17
F0.0
s(dp139
g19
I1
sg20
I1
sg21
I0
sg22
I0
sg23
I1200
stp140
sS'spring-framework'
p141
((dp142
g15
F77.94446599133148
sg16
F68.87220615468385
sg17
F47.04016913314266
s(dp143
g19
I600
sg20
I2659
sg21
I1864
sg22
I56
sg23
I118372
stp144
sS'choosealicense.com'
p145
((dp146
g15
F61.33701319124924
sg16
F52.94620748891626
sg17
F72.84345047900051
s(dp147
g19
I37
sg20
I162
sg21
I64
sg22
I28
sg23
I1817
stp148
sS'lua.vm.js'
p149
((dp150
g15
F60.20259896224029
sg16
F0.0
sg17
F0.0
s(dp151
g19
I29
sg20
I252
sg21
I19
sg22
I11
sg23
I2002
stp152
sS'clj-hannanum'
p153
((dp154
g15
F73.10585786299977
sg16
F0.0
sg17
F0.0
s(dp155
g19
I1
sg20
I3
sg21
I0
sg22
I0
sg23
I722
stp156
sS'nude.js'
p157
((dp158
g3
F50.0000459875
sg4
F0.0
sg5
F0.0
s(dp159
g7
I58
sg8
I616
sg9
I29
sg10
I8
sg11
I132
stp160
sS'codesprint2013'
p161
((dp162
g15
F73.10585786299976
sg16
F5.849625007211565
sg17
F0.0
s(dp163
g19
I1
sg20
I1
sg21
I0
sg22
I0
sg23
I6284
stp164
sS'pymemc'
p165
((dp166
g3
F50.000241225
sg4
F0.0
sg5
F0.0
s(dp167
g7
I2
sg8
I10
sg9
I2
sg10
I0
sg11
I136
stp168
sS'tv.js'
p169
((dp170
g15
F73.10585786297912
sg16
F38.94817763307944
sg17
F32.203389830235565
s(dp171
g19
I82
sg20
I1218
sg21
I102
sg22
I21
sg23
I13456
stp172
sS'autopy'
p173
((dp174
g15
F50.000012525
sg16
F0.0
sg17
F0.0
s(dp175
g19
I16
sg20
I287
sg21
I51
sg22
I29
sg23
I1226
stp176
sS'Probabilistic-Programming-and-Bayesian-Methods-for-Hackers'
p177
((dp178
g15
F57.75104705790663
sg16
F44.262647547020975
sg17
F69.00584795281284
s(dp179
g19
I482
sg20
I4716
sg21
I747
sg22
I28
sg23
I56737
stp180
sS'git-activity'
p181
((dp182
g3
F73.10585786298121
sg4
F38.201789624151886
sg5
F30.35714285687181
s(dp183
g7
I0
sg8
I3
sg9
I3
sg10
I5
sg11
I2760
stp184
sS'reddit'
p185
((dp186
g3
F100.0
sg4
F67.15961990255146
sg5
F46.42857142851616
s(dp187
g7
I1083
sg8
I4792
sg9
I326
sg10
I188
sg11
I32317
stp188
sS'facebook-android-sdk'
p189
((dp190
g15
F50.05556423521289
sg16
F0.0
sg17
F79.999999984
s(dp191
g19
I413
sg20
I2679
sg21
I1458
sg22
I196
sg23
I7936
stp192
sS'conceptnet'
p193
((dp194
g15
F50.00005795
sg16
F0.0
sg17
F0.0
s(dp195
g19
I73
sg20
I168
sg21
I43
sg22
I7
sg23
I840
stp196
sS'jgit-cookbook'
p197
((dp198
g3
F59.251254237159074
sg4
F17.004397181410926
sg5
F7.999999999680001
s(dp199
g7
I8
sg8
I24
sg9
I5
sg10
I1
sg11
I277
stp200
sS'ipython'
p201
((dp202
g15
F89.19089003033393
sg16
F83.8747886584238
sg17
F56.04929051528901
s(dp203
g19
I258
sg20
I2850
sg21
I856
sg22
I724
sg23
I68963
stp204
sS'quine-relay'
p205
((dp206
g15
F73.10585786299411
sg16
F33.03780748177103
sg17
F42.3076923071499
s(dp207
g19
I140
sg20
I2971
sg21
I196
sg22
I6
sg23
I1393
stp208
sS'bootstrap-markdown'
p209
((dp210
g3
F85.53973984469806
sg4
F23.219280948873624
sg5
F33.33333333247864
s(dp211
g7
I44
sg8
I217
sg9
I19
sg10
I8
sg11
I524
stp212
sS'yobi'
p213
((dp214
g15
F72.95068234235386
sg16
F74.63524373271181
sg17
F78.1715095676271
s(dp215
g19
I47
sg20
I118
sg21
I58
sg22
I55
sg23
I20816
stp216
sS'tanasinn'
p217
((dp218
g15
F52.059647614832116
sg16
F43.57552004618085
sg17
F3.0674846625578684
s(dp219
g19
I2
sg20
I26
sg21
I1
sg22
I0
sg23
I111016
stp220
sS'Minecraft'
p221
((dp222
g15
F50.000108575
sg16
F0.0
sg17
F99.99999989999999
s(dp223
g19
I147
sg20
I1473
sg21
I294
sg22
I10
sg23
I17273
stp224
sS'elasticsearch'
p225
((dp226
g15
F93.08615796563569
sg16
F82.63856019596084
sg17
F33.034987794941806
s(dp227
g19
I558
sg20
I5363
sg21
I1323
sg22
I746
sg23
I96609
stp228
sS'nprogress'
p229
((dp230
g3
F73.10585786294082
sg4
F35.54588851677637
sg5
F13.978494623505608
s(dp231
g7
I452
sg8
I5699
sg9
I254
sg10
I38
sg11
I550
stp232
sS'PredictionIO'
p233
((dp234
g15
F67.30699244582118
sg16
F49.12889336229962
sg17
F40.833333333163196
s(dp235
g19
I306
sg20
I3952
sg21
I244
sg22
I0
sg23
I6590
stp236
sS'clojure'
p237
((dp238
g15
F100.0
sg16
F32.85402218862249
sg17
F24.675324675004216
s(dp239
g19
I417
sg20
I2698
sg21
I535
sg22
I32
sg23
I10636
stp240
sS'sirc'
p241
((dp242
g3
F100.0
sg4
F0.0
sg5
F0.0
s(dp243
g7
I4
sg8
I10
sg9
I1
sg10
I25
sg11
I837
stp244
sS'julia'
p245
((dp246
g3
F75.7535488143734
sg4
F84.7269083924278
sg5
F67.08905315027557
s(dp247
g7
I550
sg8
I2800
sg9
I224
sg10
I578
sg11
I80670
stp248
sS'decaf-release'
p249
((dp250
g15
F73.10585786300044
sg16
F0.0
sg17
F28.571428567346942
s(dp251
g19
I20
sg20
I47
sg21
I36
sg22
I2
sg23
I11088
stp252
sS'Asis'
p253
((dp254
g15
F73.10585786298209
sg16
F19.06890595608519
sg17
F44.82758620535077
s(dp255
g19
I22
sg20
I300
sg21
I12
sg22
I0
sg23
I257
stp256
sS'xeit'
p257
((dp258
g15
F73.62559623923089
sg16
F32.47927513443586
sg17
F18.66666666641778
s(dp259
g19
I19
sg20
I120
sg21
I25
sg22
I15
sg23
I1327
stp260
sS'request-quest'
p261
((dp262
g3
F100.0
sg4
F0.0
sg5
F0.0
s(dp263
g7
I6
sg8
I60
sg9
I2
sg10
I3
sg11
I1071
stp264
sS'xyrn'
p265
((dp266
g15
F50.000018425
sg16
F0.0
sg17
F0.0
s(dp267
g19
I4
sg20
I17
sg21
I4
sg22
I0
sg23
I980
stp268
sS'findimports'
p269
((dp270
g3
F50.00732708083852
sg4
F0.0
sg5
F39.999999992
s(dp271
g7
I1
sg8
I7
sg9
I2
sg10
I1
sg11
I175
stp272
sS'bbb'
p273
((dp274
g15
F50.000236512499995
sg16
F0.0
sg17
F0.0
s(dp275
g19
I1
sg20
I1
sg21
I0
sg22
I0
sg23
I4184
stp276
sS'rails'
p277
((dp278
g3
F74.5205487281509
sg4
F88.1177605532666
sg5
F63.66165831940355
s(dp279
g7
I7057
sg8
I20279
sg9
I1334
sg10
I755
sg11
I232500
stp280
sS'PythonForDataScience'
p281
((dp282
g15
F50.00064912499996
sg16
F0.0
sg17
F0.0
s(dp283
g19
I12
sg20
I51
sg21
I29
sg22
I0
sg23
I128
stp284
sS'storm'
p285
((dp286
g15
F69.4693146876211
sg16
F35.69855608330948
sg17
F41.489361701686285
s(dp287
g19
I993
sg20
I7582
sg21
I1452
sg22
I50
sg23
I25730
stp288
sS'numpy'
p289
((dp290
g3
F74.83389222546437
sg4
F69.52741247186489
sg5
F48.08080808075951
s(dp291
g7
I504
sg8
I1075
sg9
I98
sg10
I808
sg11
I44367
stp292
sS'webpy'
p293
((dp294
g15
F76.60052136901568
sg16
F10.0
sg17
F26.66666666488889
s(dp295
g19
I244
sg20
I2682
sg21
I570
sg22
I130
sg23
I1716
stp296
sS'CUV'
p297
((dp298
g3
F50.1226258389101
sg4
F12.479275134435852
sg5
F33.33333333148148
s(dp299
g7
I14
sg8
I85
sg9
I17
sg10
I2
sg11
I292
stp300
sS'Chart.js'
p301
((dp302
g15
F50.342595204082805
sg16
F0.0
sg17
F0.0
s(dp303
g19
I477
sg20
I6431
sg21
I1842
sg22
I206
sg23
I911
stp304
sS'node-webworker'
p305
((dp306
g3
F50.00004607499999
sg4
F0.0
sg5
F0.0
s(dp307
g7
I38
sg8
I443
sg9
I21
sg10
I26
sg11
I492
stp308
sS'bower'
p309
((dp310
g15
F79.08635343164374
sg16
F60.794847838268154
sg17
F39.074074074001715
s(dp311
g19
I705
sg20
I7944
sg21
I776
sg22
I94
sg23
I8546
stp312
sS'jquery'
p313
((dp314
g15
F96.64081922749064
sg16
F57.34709620225839
sg17
F29.88235294110616
s(dp315
g19
I2461
sg20
I27066
sg21
I5786
sg22
I15
sg23
I23921
stp316
sS'macropy'
p317
((dp318
g3
F63.90927451627737
sg4
F25.545888516776376
sg5
F4.347826086862004
s(dp319
g7
I46
sg8
I1209
sg9
I65
sg10
I10
sg11
I2798
stp320
sS'libCello'
p321
((dp322
g15
F86.17808064351237
sg16
F35.23561956057013
sg17
F37.36263736222678
s(dp323
g19
I153
sg20
I1545
sg21
I92
sg22
I13
sg23
I2740
stp324
sS'pymc'
p325
((dp326
g3
F69.92781454436775
sg4
F52.19168520462162
sg5
F28.956228956131465
s(dp327
g7
I118
sg8
I562
sg9
I61
sg10
I52
sg11
I40843
stp328
sS'github-services'
p329
((dp330
g15
F65.64846113488262
sg16
F51.749256825006796
sg17
F64.58333333310908
s(dp331
g19
I75
sg20
I1279
sg21
I941
sg22
I28
sg23
I33249
stp332
sS'Puzzle'
p333
((dp334
g15
F50.00004055
sg16
F0.0
sg17
F0.0
s(dp335
g19
I2
sg20
I5
sg21
I0
sg22
I0
sg23
I160
stp336
sS'devnull-as-a-service'
p337
((dp338
g15
F73.10585786298248
sg16
F30.223678130284544
sg17
F35.93749999943848
s(dp339
g19
I5
sg20
I95
sg21
I15
sg22
I1
sg23
I222
stp340
sS'vowpal_wabbit'
p341
((dp342
g15
F75.12462063309766
sg16
F55.23561956057014
sg17
F65.12261580363727
s(dp343
g19
I152
sg20
I1008
sg21
I217
sg22
I4
sg23
I68380
stp344
sS'jpgml'
p345
((dp346
g15
F50.0000104
sg16
F0.0
sg17
F0.0
s(dp347
g19
I2
sg20
I4
sg21
I1
sg22
I0
sg23
I176
stp348
sS'statsmodels'
p349
((dp350
g15
F99.47238253735364
sg16
F59.94353436858859
sg17
F22.78978388993558
s(dp351
g19
I57
sg20
I508
sg21
I188
sg22
I474
sg23
I27707
stp352
sS'rust'
p353
((dp354
g3
F65.0961832865761
sg4
F92.24001674198105
sg5
F78.77900899015705
s(dp355
g7
I750
sg8
I3587
sg9
I335
sg10
I1479
sg11
I197340
stp356
sS'rethinkdb'
p357
((dp358
g3
F67.57294094134063
sg4
F85.26988205432006
sg5
F38.50847457625813
s(dp359
g7
I388
sg8
I4733
sg9
I348
sg10
I462
sg11
I163240
stp360
sS'bootstrap'
p361
((dp362
g3
F74.30825864365876
sg4
F84.14685235807215
sg5
F57.56687431291405
s(dp363
g7
I22148
sg8
I62089
sg9
I5011
sg10
I135
sg11
I86432
stp364
sS'mongo'
p365
((dp366
g15
F70.89248129404044
sg16
F81.00662339005198
sg17
F56.99316628698998
s(dp367
g19
I372
sg20
I4494
sg21
I1093
sg22
I94
sg23
I162770
stp368
sS'webtorrent'
p369
((dp370
g15
F73.1058578629777
sg16
F34.42943495848729
sg17
F17.441860464913468
s(dp371
g19
I100
sg20
I661
sg21
I25
sg22
I3
sg23
I888
stp372
sS'genetic-car-2'
p373
((dp374
g15
F56.039207570122215
sg16
F0.0
sg17
F66.66666664444443
s(dp375
g19
I34
sg20
I73
sg21
I14
sg22
I3
sg23
I240
stp376
sS'speak.js'
p377
((dp378
g3
F50.0001352625
sg4
F0.0
sg5
F0.0
s(dp379
g7
I96
sg8
I470
sg9
I37
sg10
I25
sg11
I5489
stp380
sS'angular.js'
p381
((dp382
g15
F67.62907537245732
sg16
F72.77287400130356
sg17
F51.612903225764825
s(dp383
g19
I1872
sg20
I17974
sg21
I5082
sg22
I948
sg23
I94263
stp384
sS'chrome-user-agent'
p385
((dp386
g3
F50.0000771375
sg4
F0.0
sg5
F0.0
s(dp387
g7
I1
sg8
I16
sg9
I1
sg10
I0
sg11
I644
stp388
sS'deepnet'
p389
((dp390
g15
F57.68759856996165
sg16
F4.594316186372978
sg17
F9.999999999
s(dp391
g19
I50
sg20
I163
sg21
I75
sg22
I17
sg23
I42484
stp392
sS'ideas'
p393
((dp394
g3
F73.82098263182118
sg4
F39.06890595608519
sg5
F27.731092436741754
s(dp395
g7
I193
sg8
I2009
sg9
I287
sg10
I6
sg11
I1533
stp396
sS'BayesDB'
p397
((dp398
g15
F63.84016891686848
sg16
F60.2513956227851
sg17
F35.76923076916198
s(dp399
g19
I59
sg20
I587
sg21
I36
sg22
I1
sg23
I14784
stp400
sS'pandas'
p401
((dp402
g15
F67.68254124136949
sg16
F74.9585502688717
sg17
F59.32085932081821
s(dp403
g19
I228
sg20
I2430
sg21
I734
sg22
I855
sg23
I37973
stp404
sS'node'
p405
((dp406
g15
F64.9437508503413
sg16
F65.980525001616
sg17
F56.5891472867486
s(dp407
g19
I1942
sg20
I26343
sg21
I5340
sg22
I689
sg23
I402839
stp408
sS'three.js'
p409
((dp410
g15
F75.12648930823518
sg16
F66.84748620421627
sg17
F40.997566909925794
s(dp411
g19
I949
sg20
I13676
sg21
I3277
sg22
I395
sg23
I235584
stp412
sS'JS-Interpreter'
p413
((dp414
g15
F73.105857863
sg16
F24.26264754702098
sg17
F0.0
s(dp415
g19
I6
sg20
I38
sg21
I5
sg22
I1
sg23
I868
stp416
sS'tornado'
p417
((dp418
g3
F69.09817487750654
sg4
F40.11227255423254
sg5
F54.687499999572765
s(dp419
g7
I1654
sg8
I6483
sg9
I572
sg10
I106
sg11
I11715
stp420
sS'mangodb'
p421
((dp422
g15
F56.89083944045906
sg16
F0.0
sg17
F99.999999975
s(dp423
g19
I10
sg20
I196
sg21
I30
sg22
I19
sg23
I276
stp424
sS'ggplot'
p425
((dp426
g15
F73.10585786294834
sg16
F55.1175265376738
sg17
F45.87912087899484
s(dp427
g19
I98
sg20
I1357
sg21
I91
sg22
I34
sg23
I35835
stp428
sS'Nancy'
p429
((dp430
g15
F80.41857478610716
sg16
F59.88684686772166
sg17
F62.52465483222382
s(dp431
g19
I162
sg20
I1849
sg21
I488
sg22
I117
sg23
I37587
stp432
sS'jamulator'
p433
((dp434
g3
F50.000040325
sg4
F0.0
sg5
F0.0
s(dp435
g7
I2
sg8
I133
sg9
I14
sg10
I1
sg11
I1332
stp436
sS'FizzBuzzEnterpriseEdition'
p437
((dp438
g3
F63.13290887969432
sg4
F19.54196310386876
sg5
F83.33333333055556
s(dp439
g7
I116
sg8
I1710
sg9
I78
sg10
I65
sg11
I431
stp440
sS'jQuery-File-Upload'
p441
((dp442
g3
F99.99999832338509
sg4
F47.944158663501064
sg5
F8.144796380053645
s(dp443
g7
I3264
sg8
I14307
sg9
I926
sg10
I24
sg11
I24650
stp444
sS'algospot'
p445
((dp446
g15
F71.3886553811824
sg16
F29.77279923499917
sg17
F32.258064515608744
s(dp447
g19
I11
sg20
I37
sg21
I23
sg22
I5
sg23
I392
stp448
sS'cudamat'
p449
((dp450
g3
F73.10585786298125
sg4
F25.84962500721157
sg5
F48.936170211724765
s(dp451
g7
I6
sg8
I7
sg9
I3
sg10
I2
sg11
I272
stp452
sS'YouCompleteMe'
p453
((dp454
g3
F83.07517189239952
sg4
F55.73647187493323
sg5
F36.842105263060944
s(dp455
g7
I355
sg8
I3742
sg9
I256
sg10
I34
sg11
I34863
stp456
sS'2013_fall_ASTR599'
p457
((dp458
g15
F73.10585786300013
sg16
F28.328900141647424
sg17
F0.0
s(dp459
g19
I9
sg20
I25
sg21
I14
sg22
I0
sg23
I11376
stp460
sS'django'
p461
((dp462
g15
F74.17850027891508
sg16
F80.68778277985415
sg17
F53.70284117370577
s(dp463
g19
I967
sg20
I8272
sg21
I3075
sg22
I145
sg23
I147616
stp464
sS'blockly-mario'
p465
((dp466
g15
F50.00047964999998
sg16
F0.0
sg17
F0.0
s(dp467
g19
I2
sg20
I7
sg21
I0
sg22
I1
sg23
I344
stp468
sS'rickshaw'
p469
((dp470
g15
F68.67578668283316
sg16
F39.06890595608519
sg17
F45.37815126012287
s(dp471
g19
I193
sg20
I3750
sg21
I578
sg22
I94
sg23
I3274
stp472
sS'fbconsole'
p473
((dp474
g3
F50.0000373
sg4
F0.0
sg5
F0.0
s(dp475
g7
I56
sg8
I268
sg9
I23
sg10
I8
sg11
I256
stp476
sS'BuildingMachineLearningSystemsWithPython'
p477
((dp478
g15
F73.10585786299538
sg16
F25.84962500721157
sg17
F27.659574467496604
s(dp479
g19
I81
sg20
I636
sg21
I69
sg22
I0
sg23
I140609
stp480
s.